target datalayout = "e-m:e-p270:32:32-p271:32:32-p272:64:64-i64:64-i128:128-f80:128-n8:16:32:64-S128"
target triple = "x86_64-pc-linux-gnu"

%class.OopHandle = type { ptr }
%class.JavaThread = type { %class.Thread, i8, %class.OopHandle, %class.OopHandle, %class.OopHandle, %class.OopHandle, %class.JavaFrameAnchor, ptr, %struct.JNIEnv_, ptr, ptr, ptr, ptr, ptr, ptr, ptr, ptr, %class.MemRegion, ptr, i8, ptr, ptr, ptr, i32, i32, %"struct.SafepointMechanism::ThreadData", ptr, ptr, i32, i32, i8, i8, i8, i8, i8, i8, i8, i32, i8, i32, i8, i8, i64, %union.anon.4, ptr, ptr, i64, i64, ptr, ptr, %class.StackOverflow, ptr, ptr, ptr, i32, i32, ptr, i32, i32, i32, ptr, ptr, i32, i64, i64, %class.StackWatermarks, %class.HandshakeState, ptr, i32, ptr, i32, i32, ptr, %class.Parker, ptr, ptr, %class.LockStack }
%class.Thread = type { %class.ThreadShadow.base, i64, [43 x i64], ptr, ptr, i32, ptr, i64, i64, %class.ThreadLocalAllocBuffer, i64, %class.ThreadHeapSampler, %class.ThreadStatisticalInfo, %class.JfrThreadLocal, ptr, ptr, ptr, ptr, ptr, ptr, i64, i32, i32, ptr, i32, i32, i32, i32, i8, ptr }
%class.ThreadShadow.base = type <{ ptr, ptr, ptr, i32 }>
%class.ThreadLocalAllocBuffer = type <{ ptr, ptr, ptr, ptr, ptr, i64, i64, i64, i64, i32, i32, i32, i32, i64, %class.AdaptiveWeightedAverage, [4 x i8] }>
%class.AdaptiveWeightedAverage = type { float, i32, i32, i8, float }
%class.ThreadHeapSampler = type { i64 }
%class.ThreadStatisticalInfo = type { i64, i64 }
%class.JfrThreadLocal = type <{ ptr, ptr, ptr, ptr, ptr, ptr, ptr, ptr, ptr, ptr, %class.RefCountHandle, i64, i64, i64, i64, i64, i64, i64, i64, i64, i64, i64, i32, i32, i32, i16, i8, i8, i8, i8, i8, [5 x i8] }>
%class.RefCountHandle = type { ptr }
%class.JavaFrameAnchor = type { ptr, ptr, ptr }
%struct.JNIEnv_ = type { ptr }
%class.MemRegion = type { ptr, i64 }
%"struct.SafepointMechanism::ThreadData" = type { i64, i64 }
%union.anon.4 = type { ptr }
%class.StackOverflow = type { i32, ptr, ptr, ptr, ptr, ptr, ptr }
%class.StackWatermarks = type { ptr }
%class.HandshakeState = type <{ ptr, %class.FilterQueue, %class.Monitor, ptr, i8, i8, i8, [5 x i8] }>
%class.FilterQueue = type { ptr }
%class.Monitor = type { %class.Mutex }
%class.Mutex = type { ptr, %class.PlatformMonitor, ptr }
%class.PlatformMonitor = type { %class.PlatformMutex, %union.pthread_cond_t }
%class.PlatformMutex = type { %union.pthread_mutex_t }
%union.pthread_mutex_t = type { %struct.__pthread_mutex_s }
%struct.__pthread_mutex_s = type { i32, i32, i32, i32, i32, i16, i16, %struct.__pthread_internal_list }
%struct.__pthread_internal_list = type { ptr, ptr }
%union.pthread_cond_t = type { %struct.__pthread_cond_s }
%struct.__pthread_cond_s = type { %union.__atomic_wide_counter, %union.__atomic_wide_counter, [2 x i32], [2 x i32], i32, i32, [2 x i32] }
%union.__atomic_wide_counter = type { i64 }
%class.Parker = type { %class.PlatformParker }
%class.PlatformParker = type { i32, i32, [1 x %union.pthread_mutex_t], [2 x %union.pthread_cond_t] }
%class.LockStack = type { i32, i64, [8 x ptr] }
%class.frame = type { %union.anon.5, ptr, ptr, ptr, i32, i8, %union.anon.6, %union.anon.7 }
%union.anon.5 = type { ptr }
%union.anon.6 = type { ptr }
%union.anon.7 = type { ptr }
%class.vframeArray = type { ptr, %class.frame, %class.frame, %class.frame, ptr, i32, i32, [609 x i64], [1 x %class.vframeArrayElement] }
%class.vframeArrayElement = type { %class.frame, i32, i8, ptr, ptr, ptr, ptr }
%class.markWord = type { i64 }
%class.BasicLock = type { %class.markWord }
%class.MonitorChunk = type { i32, ptr }
%class.BasicObjectLock = type { %class.BasicLock, ptr }

; Function Attrs: mustprogress nounwind uwtable
define linkonce_odr hidden noundef ptr @_ZNK12MonitorChunk8monitorsEv(ptr noundef nonnull align 8 dereferenceable(16) %0) #1 comdat align 2 {
  %2 = alloca ptr, align 8
  store ptr %0, ptr %2, align 8
  %3 = load ptr, ptr %2, align 8
  %4 = getelementptr inbounds %class.MonitorChunk, ptr %3, i32 0, i32 1
  %5 = load ptr, ptr %4, align 8
  ret ptr %5
}

; Function Attrs: mustprogress nounwind uwtable
define linkonce_odr hidden noundef ptr @_ZN15BasicObjectLock4lockEv(ptr noundef nonnull align 8 dereferenceable(16) %0) #1 comdat align 2 {
  %2 = alloca ptr, align 8
  store ptr %0, ptr %2, align 8
  %3 = load ptr, ptr %2, align 8
  %4 = getelementptr inbounds %class.BasicObjectLock, ptr %3, i32 0, i32 0
  ret ptr %4
}

; Function Attrs: mustprogress nounwind uwtable
define linkonce_odr hidden noundef ptr @_ZNK15BasicObjectLock3objEv(ptr noundef nonnull align 8 dereferenceable(16) %0) #1 comdat align 2 {
  %2 = alloca ptr, align 8
  store ptr %0, ptr %2, align 8
  %3 = load ptr, ptr %2, align 8
  %4 = getelementptr inbounds %class.BasicObjectLock, ptr %3, i32 0, i32 1
  %5 = load ptr, ptr %4, align 8
  ret ptr %5
}

; Function Attrs: mustprogress nounwind uwtable
define linkonce_odr hidden noundef ptr @_ZN12MonitorChunk2atEi(ptr noundef nonnull align 8 dereferenceable(16) %0, i32 noundef %1) #1 comdat align 2 {
  %3 = alloca ptr, align 8
  %4 = alloca i32, align 4
  store ptr %0, ptr %3, align 8
  store i32 %1, ptr %4, align 4
  %5 = load ptr, ptr %3, align 8
  %6 = call noundef ptr @_ZNK12MonitorChunk8monitorsEv(ptr noundef nonnull align 8 dereferenceable(16) %5)
  %7 = load i32, ptr %4, align 4
  %8 = sext i32 %7 to i64
  %9 = getelementptr inbounds %class.BasicObjectLock, ptr %6, i64 %8
  ret ptr %9
}

; Function Attrs: mustprogress nounwind uwtable
define linkonce_odr hidden noundef i32 @_ZNK12MonitorChunk18number_of_monitorsEv(ptr noundef nonnull align 8 dereferenceable(16) %0) #1 comdat align 2 {
  %2 = alloca ptr, align 8
  store ptr %0, ptr %2, align 8
  %3 = load ptr, ptr %2, align 8
  %4 = getelementptr inbounds %class.MonitorChunk, ptr %3, i32 0, i32 0
  %5 = load i32, ptr %4, align 8
  ret i32 %5
}

; Function Attrs: mustprogress nounwind uwtable
define linkonce_odr hidden noundef ptr @_ZNK18vframeArrayElement8monitorsEv(ptr noundef nonnull align 8 dereferenceable(96) %0) #1 comdat align 2 {
  %2 = alloca ptr, align 8
  store ptr %0, ptr %2, align 8
  %3 = load ptr, ptr %2, align 8
  %4 = getelementptr inbounds %class.vframeArrayElement, ptr %3, i32 0, i32 4
  %5 = load ptr, ptr %4, align 8
  ret ptr %5
}

; Function Attrs: mustprogress nounwind uwtable
define linkonce_odr hidden noundef ptr @_ZN11vframeArray7elementEi(ptr noundef nonnull align 8 dereferenceable(5160) %0, i32 noundef %1) #1 comdat align 2 {
  %3 = alloca ptr, align 8
  %4 = alloca i32, align 4
  store ptr %0, ptr %3, align 8
  store i32 %1, ptr %4, align 4
  %5 = load ptr, ptr %3, align 8
  %6 = getelementptr inbounds %class.vframeArray, ptr %5, i32 0, i32 8
  %7 = load i32, ptr %4, align 4
  %8 = sext i32 %7 to i64
  %9 = getelementptr inbounds [1 x %class.vframeArrayElement], ptr %6, i64 0, i64 %8
  ret ptr %9
}

; Function Attrs: mustprogress nounwind uwtable
define linkonce_odr hidden void @_ZN10JavaThread32set_frames_to_pop_failed_reallocEi(ptr noundef nonnull align 8 dereferenceable(1800) %0, i32 noundef %1) #1 comdat align 2 {
  %3 = alloca ptr, align 8
  %4 = alloca i32, align 4
  store ptr %0, ptr %3, align 8
  store i32 %1, ptr %4, align 4
  %5 = load ptr, ptr %3, align 8
  %6 = load i32, ptr %4, align 4
  %7 = getelementptr inbounds %class.JavaThread, ptr %5, i32 0, i32 59
  store i32 %6, ptr %7, align 8
  ret void
}

; Function Attrs: mustprogress nounwind uwtable
define linkonce_odr hidden noundef i32 @_ZNK11vframeArray6framesEv(ptr noundef nonnull align 8 dereferenceable(5160) %0) #1 comdat align 2 {
  %2 = alloca ptr, align 8
  store ptr %0, ptr %2, align 8
  %3 = load ptr, ptr %2, align 8
  %4 = getelementptr inbounds %class.vframeArray, ptr %3, i32 0, i32 6
  %5 = load i32, ptr %4, align 4
  ret i32 %5
}

; Function Attrs: mustprogress nounwind uwtable
define hidden void @_ZN14Deoptimization26pop_frames_failed_reallocsEP10JavaThreadP11vframeArray(ptr noundef %0, ptr noundef %1) #1 align 2 {
  %3 = alloca ptr, align 8
  %4 = alloca ptr, align 8
  %5 = alloca i32, align 4
  %6 = alloca ptr, align 8
  %7 = alloca i32, align 4
  %8 = alloca ptr, align 8
  store ptr %0, ptr %3, align 8
  store ptr %1, ptr %4, align 8
  %9 = load ptr, ptr %3, align 8
  %10 = load ptr, ptr %4, align 8
  %11 = call noundef i32 @_ZNK11vframeArray6framesEv(ptr noundef nonnull align 8 dereferenceable(5160) %10)
  call void @_ZN10JavaThread32set_frames_to_pop_failed_reallocEi(ptr noundef nonnull align 8 dereferenceable(1800) %9, i32 noundef %11)
  store i32 0, ptr %5, align 4
  br label %12

12:                                               ; preds = %53, %2
  %13 = load i32, ptr %5, align 4
  %14 = load ptr, ptr %4, align 8
  %15 = call noundef i32 @_ZNK11vframeArray6framesEv(ptr noundef nonnull align 8 dereferenceable(5160) %14)
  %16 = icmp slt i32 %13, %15
  br i1 %16, label %17, label %56

17:                                               ; preds = %12
  %18 = load ptr, ptr %4, align 8
  %19 = load i32, ptr %5, align 4
  %20 = call noundef ptr @_ZN11vframeArray7elementEi(ptr noundef nonnull align 8 dereferenceable(5160) %18, i32 noundef %19)
  %21 = call noundef ptr @_ZNK18vframeArrayElement8monitorsEv(ptr noundef nonnull align 8 dereferenceable(96) %20)
  store ptr %21, ptr %6, align 8
  %22 = load ptr, ptr %6, align 8
  %23 = icmp ne ptr %22, null
  br i1 %23, label %24, label %52

24:                                               ; preds = %17
  %25 = load ptr, ptr %6, align 8
  %26 = call noundef i32 @_ZNK12MonitorChunk18number_of_monitorsEv(ptr noundef nonnull align 8 dereferenceable(16) %25)
  %27 = sub nsw i32 %26, 1
  store i32 %27, ptr %7, align 4
  br label %28

28:                                               ; preds = %45, %24
  %29 = load i32, ptr %7, align 4
  %30 = icmp sge i32 %29, 0
  br i1 %30, label %31, label %48

31:                                               ; preds = %28
  %32 = load ptr, ptr %6, align 8
  %33 = load i32, ptr %7, align 4
  %34 = call noundef ptr @_ZN12MonitorChunk2atEi(ptr noundef nonnull align 8 dereferenceable(16) %32, i32 noundef %33)
  store ptr %34, ptr %8, align 8
  %35 = load ptr, ptr %8, align 8
  %36 = call noundef ptr @_ZNK15BasicObjectLock3objEv(ptr noundef nonnull align 8 dereferenceable(16) %35)
  %37 = icmp ne ptr %36, null
  br i1 %37, label %38, label %44

38:                                               ; preds = %31
  %39 = load ptr, ptr %8, align 8
  %40 = call noundef ptr @_ZNK15BasicObjectLock3objEv(ptr noundef nonnull align 8 dereferenceable(16) %39)
  %41 = load ptr, ptr %8, align 8
  %42 = call noundef ptr @_ZN15BasicObjectLock4lockEv(ptr noundef nonnull align 8 dereferenceable(16) %41)
  %43 = load ptr, ptr %3, align 8
  call void @_ZN18ObjectSynchronizer4exitEP7oopDescP9BasicLockP10JavaThread(ptr noundef %40, ptr noundef %42, ptr noundef %43)
  br label %44

44:                                               ; preds = %38, %31
  br label %45

45:                                               ; preds = %44
  %46 = load i32, ptr %7, align 4
  %47 = add nsw i32 %46, -1
  store i32 %47, ptr %7, align 4
  br label %28, !llvm.loop !14

48:                                               ; preds = %28
  %49 = load ptr, ptr %4, align 8
  %50 = load i32, ptr %5, align 4
  %51 = call noundef ptr @_ZN11vframeArray7elementEi(ptr noundef nonnull align 8 dereferenceable(5160) %49, i32 noundef %50)
  call void @_ZN18vframeArrayElement13free_monitorsEv(ptr noundef nonnull align 8 dereferenceable(96) %51)
  br label %52

52:                                               ; preds = %48, %17
  br label %53

53:                                               ; preds = %52
  %54 = load i32, ptr %5, align 4
  %55 = add nsw i32 %54, 1
  store i32 %55, ptr %5, align 4
  br label %12, !llvm.loop !15

56:                                               ; preds = %12
  ret void
}