; Function Attrs: mustprogress nounwind uwtable
define hidden void @_ZN14Deoptimization26pop_frames_failed_reallocsEP10JavaThreadP11vframeArray(ptr noundef %0, ptr noundef %1) local_unnamed_addr #0 align 2 {
  %3 = getelementptr inbounds i8, ptr %1, i64 188
  %4 = load i32, ptr %3, align 4
  %5 = getelementptr inbounds i8, ptr %0, i64 1328
  store i32 %4, ptr %5, align 8
  %6 = icmp sgt i32 %4, 0
  br i1 %6, label %.lr.ph25, label %._crit_edge26

.lr.ph25:                                         ; preds = %2
  %7 = getelementptr inbounds i8, ptr %1, i64 5064
  br label %8

8:                                                ; preds = %.lr.ph25, %26
  %9 = phi i32 [ %4, %.lr.ph25 ], [ %27, %26 ]
  %indvars.iv28 = phi i64 [ 0, %.lr.ph25 ], [ %indvars.iv.next29, %26 ]
  %10 = getelementptr inbounds [1 x %class.vframeArrayElement], ptr %7, i64 0, i64 %indvars.iv28
  %11 = getelementptr inbounds i8, ptr %10, i64 72
  %12 = load ptr, ptr %11, align 8
  %.not = icmp eq ptr %12, null
  br i1 %.not, label %26, label %13

13:                                               ; preds = %8
  %14 = load i32, ptr %12, align 8
  %15 = icmp sgt i32 %14, 0
  br i1 %15, label %.lr.ph, label %._crit_edge

.lr.ph:                                           ; preds = %13
  %16 = getelementptr inbounds i8, ptr %12, i64 8
  %17 = zext nneg i32 %14 to i64
  br label %18

18:                                               ; preds = %.lr.ph, %24
  %indvars.iv = phi i64 [ %17, %.lr.ph ], [ %indvars.iv.next, %24 ]
  %indvars.iv.next = add nsw i64 %indvars.iv, -1
  %19 = load ptr, ptr %16, align 8
  %20 = getelementptr inbounds %class.BasicObjectLock, ptr %19, i64 %indvars.iv.next
  %21 = getelementptr inbounds i8, ptr %20, i64 8
  %22 = load ptr, ptr %21, align 8
  %.not20 = icmp eq ptr %22, null
  br i1 %.not20, label %24, label %23

23:                                               ; preds = %18
  tail call void @_ZN18ObjectSynchronizer4exitEP7oopDescP9BasicLockP10JavaThread(ptr noundef nonnull %22, ptr noundef nonnull %20, ptr noundef nonnull %0) #22
  br label %24

24:                                               ; preds = %18, %23
  %25 = icmp ugt i64 %indvars.iv, 1
  br i1 %25, label %18, label %._crit_edge, !llvm.loop !20

._crit_edge:                                      ; preds = %24, %13
  tail call void @_ZN18vframeArrayElement13free_monitorsEv(ptr noundef nonnull align 8 dereferenceable(96) %10) #22
  %.pre = load i32, ptr %3, align 4
  br label %26

26:                                               ; preds = %8, %._crit_edge
  %27 = phi i32 [ %9, %8 ], [ %.pre, %._crit_edge ]
  %indvars.iv.next29 = add nuw nsw i64 %indvars.iv28, 1
  %28 = sext i32 %27 to i64
  %29 = icmp slt i64 %indvars.iv.next29, %28
  br i1 %29, label %8, label %._crit_edge26, !llvm.loop !21

._crit_edge26:                                    ; preds = %26, %2
  ret void
}